target datalayout = "e-m:e-p270:32:32-p271:32:32-p272:64:64-i64:64-i128:128-f80:128-n8:16:32:64-S128"
target triple = "x86_64-pc-linux-gnu"

%struct.wtap_block = type { ptr, ptr, ptr, i32 }

; Function Attrs: nounwind null_pointer_is_valid sspstrong uwtable
define ptr @wtap_block_ref(ptr noundef %0) #2 {
  %2 = alloca ptr, align 8
  %3 = alloca ptr, align 8
  %4 = alloca i32, align 4
  %5 = alloca i32, align 4
  store ptr %0, ptr %3, align 8
  %6 = load ptr, ptr %3, align 8
  %7 = icmp eq ptr %6, null
  br i1 %7, label %8, label %9

8:                                                ; preds = %1
  store ptr null, ptr %2, align 8
  br label %15

9:                                                ; preds = %1
  %10 = load ptr, ptr %3, align 8
  %11 = getelementptr inbounds nuw %struct.wtap_block, ptr %10, i32 0, i32 3
  store i32 1, ptr %4, align 4
  %12 = load i32, ptr %4, align 4
  %13 = atomicrmw add ptr %11, i32 %12 seq_cst, align 8
  store i32 %13, ptr %5, align 4
  %14 = load ptr, ptr %3, align 8
  store ptr %14, ptr %2, align 8
  br label %15

15:                                               ; preds = %9, %8
  %16 = load ptr, ptr %2, align 8
  ret ptr %16
}