; Function Attrs: mustprogress nofree norecurse nounwind null_pointer_is_valid sspstrong willreturn memory(argmem: readwrite) uwtable
define noundef ptr @wtap_block_ref(ptr noundef returned captures(address_is_null, ret: address, provenance) %0) local_unnamed_addr #6 {
  %2 = icmp eq ptr %0, null
  br i1 %2, label %6, label %3

3:                                                ; preds = %1
  %4 = getelementptr inbounds nuw i8, ptr %0, i64 24
  %5 = atomicrmw add ptr %4, i32 1 seq_cst, align 8
  br label %6

6:                                                ; preds = %1, %3
  ret ptr %0
}